; ModuleID = 'source-C-CXX/30/1574.c'
source_filename = "source-C-CXX/30/1574.c"
target datalayout = "e-m:e-p270:32:32-p271:32:32-p272:64:64-i64:64-f80:128-n8:16:32:64-S128"
target triple = "x86_64-pc-linux-gnu"

%struct.stu = type { [50 x i8], [50 x i8], i8, i32, i32, [50 x i8], %struct.stu* }

@n = dso_local local_unnamed_addr global i32 0, align 4
@.str = private unnamed_addr constant [4 x i8] c"end\00", align 1

; Function Attrs: nounwind sspstrong uwtable
define dso_local %struct.stu* @creat() local_unnamed_addr #0 {
  store i32 0, i32* @n, align 4, !tbaa !5
  %1 = tail call noalias align 16 dereferenceable_or_null(176) i8* @malloc(i64 176) #6
  %2 = bitcast i8* %1 to %struct.stu*
  %3 = getelementptr inbounds %struct.stu, %struct.stu* %2, i64 0, i32 0, i64 0
  %4 = tail call i32 (i8*, ...) bitcast (i32 (...)* @gets to i32 (i8*, ...)*)(i8* %3) #6
  %5 = tail call i32 @strcmp(i8* noundef nonnull dereferenceable(1) %3, i8* noundef nonnull dereferenceable(4) getelementptr inbounds ([4 x i8], [4 x i8]* @.str, i64 0, i64 0)) #7
  %6 = icmp eq i32 %5, 0
  br i1 %6, label %21, label %7

7:                                                ; preds = %0, %7
  %8 = phi %struct.stu* [ %9, %7 ], [ %2, %0 ]
  %9 = phi %struct.stu* [ %16, %7 ], [ %2, %0 ]
  %10 = load i32, i32* @n, align 4, !tbaa !5
  %11 = add nsw i32 %10, 1
  store i32 %11, i32* @n, align 4, !tbaa !5
  %12 = icmp eq i32 %10, 0
  %13 = select i1 %12, %struct.stu* null, %struct.stu* %8
  %14 = getelementptr inbounds %struct.stu, %struct.stu* %9, i64 0, i32 6
  store %struct.stu* %13, %struct.stu** %14, align 8
  %15 = tail call noalias align 16 dereferenceable_or_null(176) i8* @malloc(i64 176) #6
  %16 = bitcast i8* %15 to %struct.stu*
  %17 = getelementptr inbounds %struct.stu, %struct.stu* %16, i64 0, i32 0, i64 0
  %18 = tail call i32 (i8*, ...) bitcast (i32 (...)* @gets to i32 (i8*, ...)*)(i8* %17) #6
  %19 = tail call i32 @strcmp(i8* noundef nonnull dereferenceable(1) %17, i8* noundef nonnull dereferenceable(4) getelementptr inbounds ([4 x i8], [4 x i8]* @.str, i64 0, i64 0)) #7
  %20 = icmp eq i32 %19, 0
  br i1 %20, label %21, label %7, !llvm.loop !9

21:                                               ; preds = %7, %0
  %22 = phi %struct.stu* [ null, %0 ], [ %9, %7 ]
  ret %struct.stu* %22
}

; Function Attrs: inaccessiblememonly mustprogress nofree nounwind willreturn
declare noalias noundef align 16 i8* @malloc(i64 noundef) local_unnamed_addr #1

declare i32 @gets(...) local_unnamed_addr #2

; Function Attrs: argmemonly mustprogress nofree nounwind readonly willreturn
declare i32 @strcmp(i8* nocapture, i8* nocapture) local_unnamed_addr #3

; Function Attrs: nofree nounwind sspstrong uwtable
define dso_local void @print(%struct.stu* readonly %0) local_unnamed_addr #4 {
  %2 = icmp eq %struct.stu* %0, null
  br i1 %2, label %10, label %3

3:                                                ; preds = %1, %3
  %4 = phi %struct.stu* [ %8, %3 ], [ %0, %1 ]
  %5 = getelementptr inbounds %struct.stu, %struct.stu* %4, i64 0, i32 0, i64 0
  %6 = tail call i32 @puts(i8* nonnull %5)
  %7 = getelementptr inbounds %struct.stu, %struct.stu* %4, i64 0, i32 6
  %8 = load %struct.stu*, %struct.stu** %7, align 8, !tbaa !11
  %9 = icmp eq %struct.stu* %8, null
  br i1 %9, label %10, label %3, !llvm.loop !14

10:                                               ; preds = %3, %1
  ret void
}

; Function Attrs: nounwind sspstrong uwtable
define dso_local void @main() local_unnamed_addr #0 {
  store i32 0, i32* @n, align 4, !tbaa !5
  %1 = tail call noalias align 16 dereferenceable_or_null(176) i8* @malloc(i64 176) #6
  %2 = bitcast i8* %1 to %struct.stu*
  %3 = getelementptr inbounds %struct.stu, %struct.stu* %2, i64 0, i32 0, i64 0
  %4 = tail call i32 (i8*, ...) bitcast (i32 (...)* @gets to i32 (i8*, ...)*)(i8* %3) #6
  %5 = tail call i32 @strcmp(i8* noundef nonnull dereferenceable(1) %3, i8* noundef nonnull dereferenceable(4) getelementptr inbounds ([4 x i8], [4 x i8]* @.str, i64 0, i64 0)) #7
  %6 = icmp eq i32 %5, 0
  br i1 %6, label %28, label %7

7:                                                ; preds = %0, %7
  %8 = phi %struct.stu* [ %9, %7 ], [ %2, %0 ]
  %9 = phi %struct.stu* [ %16, %7 ], [ %2, %0 ]
  %10 = load i32, i32* @n, align 4, !tbaa !5
  %11 = add nsw i32 %10, 1
  store i32 %11, i32* @n, align 4, !tbaa !5
  %12 = icmp eq i32 %10, 0
  %13 = select i1 %12, %struct.stu* null, %struct.stu* %8
  %14 = getelementptr inbounds %struct.stu, %struct.stu* %9, i64 0, i32 6
  store %struct.stu* %13, %struct.stu** %14, align 8
  %15 = tail call noalias align 16 dereferenceable_or_null(176) i8* @malloc(i64 176) #6
  %16 = bitcast i8* %15 to %struct.stu*
  %17 = getelementptr inbounds %struct.stu, %struct.stu* %16, i64 0, i32 0, i64 0
  %18 = tail call i32 (i8*, ...) bitcast (i32 (...)* @gets to i32 (i8*, ...)*)(i8* %17) #6
  %19 = tail call i32 @strcmp(i8* noundef nonnull dereferenceable(1) %17, i8* noundef nonnull dereferenceable(4) getelementptr inbounds ([4 x i8], [4 x i8]* @.str, i64 0, i64 0)) #7
  %20 = icmp eq i32 %19, 0
  br i1 %20, label %21, label %7, !llvm.loop !9

21:                                               ; preds = %7, %21
  %22 = phi %struct.stu* [ %26, %21 ], [ %9, %7 ]
  %23 = getelementptr inbounds %struct.stu, %struct.stu* %22, i64 0, i32 0, i64 0
  %24 = tail call i32 @puts(i8* nonnull %23) #6
  %25 = getelementptr inbounds %struct.stu, %struct.stu* %22, i64 0, i32 6
  %26 = load %struct.stu*, %struct.stu** %25, align 8, !tbaa !11
  %27 = icmp eq %struct.stu* %26, null
  br i1 %27, label %28, label %21, !llvm.loop !14

28:                                               ; preds = %21, %0
  ret void
}

; Function Attrs: nofree nounwind
declare noundef i32 @puts(i8* nocapture noundef readonly) local_unnamed_addr #5


!llvm.module.flags = !{!0, !1, !2, !3}
!llvm.ident = !{!4}

!0 = !{i32 1, !"wchar_size", i32 4}
!1 = !{i32 7, !"PIC Level", i32 2}
!2 = !{i32 7, !"PIE Level", i32 2}
!3 = !{i32 7, !"uwtable", i32 1}
!4 = !{!"clang version 13.0.0"}
!5 = !{!6, !6, i64 0}
!6 = !{!"int", !7, i64 0}
!7 = !{!"omnipotent char", !8, i64 0}
!8 = !{!"Simple C/C++ TBAA"}
!9 = distinct !{!9, !10}
!10 = !{!"llvm.loop.mustprogress"}
!11 = !{!12, !13, i64 168}
!12 = !{!"stu", !7, i64 0, !7, i64 50, !7, i64 100, !6, i64 104, !6, i64 108, !7, i64 112, !13, i64 168}
!13 = !{!"any pointer", !7, i64 0}
!14 = distinct !{!14, !10}
